Certificate:
    Data:
        Version: 1 (0x0)
        Serial Number: 3 (0x3)
        Signature Algorithm: sha1WithRSAEncryption
        Issuer: C=US, ST=ID, L=IF, O=UoI, OU=CS, CN=rootLocalhost/emailAddress=makr7178@vandals.uidaho.edu
        Validity
            Not Before: Sep 10 04:09:03 2021 GMT
            Not After : Sep 10 04:09:03 2023 GMT
        Subject: CN=127.0.0.1, ST=Idaho, C=US/emailAddress=gmakrakis8@.uidaho.edu, O=UoI, OU=CS
        Subject Public Key Info:
            Public Key Algorithm: rsaEncryption
                RSA Public-Key: (4096 bit)
                Modulus:
                    00:c5:c0:e9:ff:3b:1e:61:5f:92:7b:6e:f4:c6:81:
                    75:5a:f5:7e:c7:0b:c4:db:5c:f8:06:70:ec:88:92:
                    98:5b:16:70:5c:7d:49:a2:8f:d5:9a:dc:7d:ad:2a:
                    37:89:18:85:24:19:25:34:8d:9f:74:68:b3:b1:bc:
                    f4:f7:6d:3b:c8:83:93:c5:e6:cb:39:68:14:63:09:
                    e7:a9:d3:60:73:7a:27:09:1b:e0:16:8d:92:d4:9f:
                    53:0f:79:f1:39:b8:7d:26:e5:ce:0e:f3:f0:04:76:
                    8c:24:e3:bf:b4:45:f4:9c:6d:7c:ca:36:cb:14:ae:
                    61:28:6d:c3:cc:a8:22:19:fc:b0:48:16:a2:c7:a0:
                    e1:e1:ac:df:05:de:c1:f4:f5:97:eb:f0:e6:1b:71:
                    ab:80:e7:54:7f:74:32:c5:69:e6:51:63:19:c2:85:
                    67:22:aa:1d:36:70:3e:51:4a:2a:da:ed:04:ef:d9:
                    c2:67:06:e3:3f:fc:4c:ec:1a:e7:d9:9b:2d:c3:66:
                    31:fd:72:24:6b:90:19:a5:83:ce:31:fb:9a:c3:20:
                    2e:48:c8:97:c7:93:00:42:68:86:1d:13:19:3c:b9:
                    47:34:64:6f:f0:b5:08:97:99:70:87:cc:c9:c4:02:
                    e6:fb:04:00:0b:48:06:d8:62:dc:d1:de:d3:d7:e9:
                    2f:0d:3b:ae:1d:c0:30:4d:d3:83:37:84:37:f0:87:
                    7f:57:58:ad:f3:2e:c3:98:93:98:c1:35:5d:12:40:
                    bf:d7:91:d6:60:d2:34:5a:24:cf:c9:f5:87:f2:7c:
                    b3:42:da:a8:c8:05:b2:c0:10:db:ce:39:8c:cb:24:
                    fa:2f:b6:a6:26:92:39:bf:d7:8e:61:19:9d:c5:f4:
                    c7:e0:64:dd:72:1d:e5:ea:f3:42:a1:bb:84:25:58:
                    9b:5c:7c:0a:2b:d1:9b:79:68:e5:14:c5:bc:24:ed:
                    a1:74:20:d6:da:33:9c:05:13:36:f2:eb:87:4d:29:
                    89:07:cd:94:f4:c9:88:19:25:ea:06:6a:24:75:04:
                    87:58:fa:a9:b4:48:fe:49:8c:6d:20:07:d6:bd:cf:
                    1f:94:14:09:62:42:2f:17:f5:79:db:11:27:59:5e:
                    51:85:7e:4d:eb:d3:ca:c5:ea:42:7a:c4:94:2a:b2:
                    2f:d1:3d:f2:bb:c6:bf:0d:94:26:6f:c7:02:2b:bd:
                    b9:af:21:43:a7:e5:76:2b:42:fe:f3:b4:eb:d0:62:
                    22:95:f6:5a:c2:d6:88:85:1e:67:12:40:38:a2:f9:
                    80:d6:33:24:d4:2a:d3:3b:cc:90:ea:e2:89:cd:26:
                    58:1c:fd:d6:32:23:8e:fb:1b:53:b3:c2:57:f3:dd:
                    5f:a5:1b
                Exponent: 65537 (0x10001)
    Signature Algorithm: sha1WithRSAEncryption
         24:8e:01:a9:47:c6:12:b1:75:26:8d:14:dd:2a:26:2d:b4:59:
         7d:ae:6c:00:b3:2d:de:6b:d0:3d:a8:57:cd:83:f2:08:f5:a5:
         44:a0:88:1f:58:9f:39:64:00:8c:56:df:66:92:02:ef:9a:6d:
         f5:48:f5:d4:71:0c:4a:63:24:50:74:ee:f4:dd:20:6f:6d:4e:
         d6:93:4e:af:18:2a:7d:77:3f:12:2f:d0:4c:2f:33:6c:20:9b:
         8b:7d:8c:db:23:fb:e7:c5:78:e0:5c:70:e7:7f:9a:93:9f:d6:
         cd:65:15:2e:79:4f:4e:cd:42:91:8a:ab:68:4b:7e:ce:dd:6b:
         ee:fb:99:dc:b7:02:41:57:8a:74:4c:a7:99:ea:a2:17:fa:03:
         a9:81:c3:9c:49:14:8f:02:70:7c:89:ad:ae:a7:32:6d:b5:e7:
         be:12:85:df:fd:61:cf:6f:16:e2:4b:4f:42:98:6f:d0:e4:b2:
         f9:cc:84:74:8b:fc:76:1d:fc:a4:b1:e6:d2:5c:98:2c:02:28:
         e9:7e:53:84:14:38:16:f4:40:bd:8c:eb:f5:87:df:38:8a:93:
         e0:64:02:06:28:c1:b1:e6:c7:fd:8b:5e:d8:d7:de:70:fc:90:
         8e:7c:a8:1c:8a:e1:45:ee:d4:89:05:b3:8a:fc:a7:ce:9c:98:
         54:52:87:6d:9c:e6:0e:80:df:32:70:f1:ef:45:25:75:cf:f9:
         fe:3c:a0:66:49:21:b4:b4:25:3c:1a:77:fb:b9:8d:e6:be:24:
         54:5f:13:62:c7:e7:6b:a8:3a:90:5a:8f:5b:95:52:88:7c:fa:
         09:84:ed:59:0a:f8:f7:74:5f:aa:10:31:46:50:9d:ca:70:8e:
         c5:4d:91:30:2f:58:0b:0b:12:c6:89:19:4a:d6:bb:7a:83:41:
         a2:a5:6f:8c:6f:ea:34:04:b5:11:29:9c:fe:fc:77:53:19:97:
         78:40:eb:5c:94:74:d9:15:8c:0f:86:b4:1d:be:82:39:c1:e6:
         b2:f1:2c:e6:bf:68:62:f0:41:55:13:ed:ab:b4:11:59:d1:8a:
         b4:55:d2:0f:86:97:37:72:86:14:27:81:e4:85:1e:f6:53:b7:
         09:0f:04:55:f6:72:b9:c7:da:6f:07:3d:b2:f1:23:4d:50:b9:
         71:56:37:ca:3e:54:ac:6e:b8:55:da:d4:4f:b2:55:0e:86:4d:
         d2:b2:c9:6a:98:ca:d5:c9:e2:6b:af:33:51:b3:3d:b8:a6:43:
         9b:a5:ae:13:14:44:d6:69:a7:2f:c0:3b:b1:73:8d:bb:c7:45:
         85:c6:20:68:bf:a7:78:8c:d5:f7:b9:3e:34:0b:c5:f4:69:74:
         f1:66:62:9d:c2:37:5d:58
-----BEGIN CERTIFICATE-----
MIIFbjCCA1YCAQMwDQYJKoZIhvcNAQEFBQAwgYYxCzAJBgNVBAYTAlVTMQswCQYD
VQQIDAJJRDELMAkGA1UEBwwCSUYxDDAKBgNVBAoMA1VvSTELMAkGA1UECwwCQ1Mx
FjAUBgNVBAMMDXJvb3RMb2NhbGhvc3QxKjAoBgkqhkiG9w0BCQEWG21ha3I3MTc4
QHZhbmRhbHMudWlkYWhvLmVkdTAeFw0yMTA5MTAwNDA5MDNaFw0yMzA5MTAwNDA5
MDNaMHMxEjAQBgNVBAMMCTEyNy4wLjAuMTEOMAwGA1UECAwFSWRhaG8xCzAJBgNV
BAYTAlVTMSUwIwYJKoZIhvcNAQkBFhZnbWFrcmFraXM4QC51aWRhaG8uZWR1MQww
CgYDVQQKDANVb0kxCzAJBgNVBAsMAkNTMIICIjANBgkqhkiG9w0BAQEFAAOCAg8A
MIICCgKCAgEAxcDp/zseYV+Se270xoF1WvV+xwvE21z4BnDsiJKYWxZwXH1Joo/V
mtx9rSo3iRiFJBklNI2fdGizsbz09207yIOTxebLOWgUYwnnqdNgc3onCRvgFo2S
1J9TD3nxObh9JuXODvPwBHaMJOO/tEX0nG18yjbLFK5hKG3DzKgiGfywSBaix6Dh
4azfBd7B9PWX6/DmG3GrgOdUf3QyxWnmUWMZwoVnIqodNnA+UUoq2u0E79nCZwbj
P/xM7Brn2Zstw2Yx/XIka5AZpYPOMfuawyAuSMiXx5MAQmiGHRMZPLlHNGRv8LUI
l5lwh8zJxALm+wQAC0gG2GLc0d7T1+kvDTuuHcAwTdODN4Q38Id/V1it8y7DmJOY
wTVdEkC/15HWYNI0WiTPyfWH8nyzQtqoyAWywBDbzjmMyyT6L7amJpI5v9eOYRmd
xfTH4GTdch3l6vNCobuEJVibXHwKK9GbeWjlFMW8JO2hdCDW2jOcBRM28uuHTSmJ
B82U9MmIGSXqBmokdQSHWPqptEj+SYxtIAfWvc8flBQJYkIvF/V52xEnWV5RhX5N
69PKxepCesSUKrIv0T3yu8a/DZQmb8cCK725ryFDp+V2K0L+87Tr0GIilfZawtaI
hR5nEkA4ovmA1jMk1CrTO8yQ6uKJzSZYHP3WMiOO+xtTs8JX891fpRsCAwEAATAN
BgkqhkiG9w0BAQUFAAOCAgEAJI4BqUfGErF1Jo0U3SomLbRZfa5sALMt3mvQPahX
zYPyCPWlRKCIH1ifOWQAjFbfZpIC75pt9Uj11HEMSmMkUHTu9N0gb21O1pNOrxgq
fXc/Ei/QTC8zbCCbi32M2yP758V44Fxw53+ak5/WzWUVLnlPTs1CkYqraEt+zt1r
7vuZ3LcCQVeKdEynmeqiF/oDqYHDnEkUjwJwfImtrqcybbXnvhKF3/1hz28W4ktP
Qphv0OSy+cyEdIv8dh38pLHm0lyYLAIo6X5ThBQ4FvRAvYzr9YffOIqT4GQCBijB
sebH/Yte2NfecPyQjnyoHIrhRe7UiQWzivynzpyYVFKHbZzmDoDfMnDx70Uldc/5
/jygZkkhtLQlPBp3+7mN5r4kVF8TYsfna6g6kFqPW5VSiHz6CYTtWQr493RfqhAx
RlCdynCOxU2RMC9YCwsSxokZSta7eoNBoqVvjG/qNAS1ESmc/vx3UxmXeEDrXJR0
2RWMD4a0Hb6COcHmsvEs5r9oYvBBVRPtq7QRWdGKtFXSD4aXN3KGFCeB5IUe9lO3
CQ8EVfZyucfabwc9svEjTVC5cVY3yj5UrG64VdrUT7JVDoZN0rLJapjK1cnia68z
UbM9uKZDm6WuExRE1mmnL8A7sXONu8dFhcYgaL+neIzV97k+NAvF9Gl08WZincI3
XVg=
-----END CERTIFICATE-----
